Certificate:
    Data:
        Version: 3 (0x2)
        Serial Number: 0 (0x0)
    Signature Algorithm: sha256WithRSAEncryption
        Issuer: C=US, ST=NC, L=Charlotte, O=zeta, CN=marathon.mesos
        Validity
            Not Before: Nov  9 19:55:02 2016 GMT
            Not After : Nov 19 19:55:02 2017 GMT
        Subject: C=US, ST=CA, O=test-ca-cert, CN=test-ca-cert.marathon.slave.mesos
        Subject Public Key Info:
            Public Key Algorithm: rsaEncryption
                Public-Key: (4096 bit)
                Modulus:
                    00:e4:3e:fc:e9:d5:1c:7a:c7:10:01:91:8a:cd:81:
                    f4:a5:ae:1b:0d:80:cd:7c:b4:69:05:52:4a:bd:28:
                    f8:fa:18:4c:f3:8b:6e:2e:3f:af:39:27:12:d8:48:
                    d9:af:60:b0:9d:c2:03:be:a5:36:3a:17:eb:b2:b9:
                    3b:f7:c8:ee:49:80:b0:11:49:60:27:11:38:3c:97:
                    00:7d:62:df:a9:73:20:c7:c9:bd:0f:96:35:9a:9f:
                    48:ac:de:74:d5:bd:2e:ff:ed:a9:ee:f1:bf:ba:ff:
                    47:ed:4d:02:e8:0d:31:c3:b3:5e:d8:e3:3c:31:7a:
                    91:92:83:b7:0b:32:6f:3d:a4:21:f9:2a:0b:46:6e:
                    fb:39:a4:ed:68:e3:ba:8c:df:06:69:ba:aa:24:86:
                    8e:c0:09:5b:97:d3:6c:93:fa:38:eb:5e:12:4f:c7:
                    90:d1:e2:cb:a8:18:6e:2e:03:2e:83:63:1f:f7:16:
                    41:3b:dd:7b:c5:1c:7e:91:55:29:fb:30:eb:70:a3:
                    01:8b:55:4b:db:7f:eb:db:5e:0a:91:81:81:17:15:
                    75:fa:ef:59:98:a9:93:ed:48:bb:c7:4c:c2:6c:dc:
                    3c:21:f5:aa:f3:54:c8:a2:88:4f:b8:6f:bd:44:18:
                    36:38:9f:88:48:25:95:1b:9e:32:89:e2:2c:bb:35:
                    31:70:1e:97:42:5f:cb:2a:b3:58:04:8d:71:0e:b9:
                    9c:89:d0:8d:f2:29:9c:76:b0:dc:18:5f:8e:9e:92:
                    65:e3:09:56:79:be:73:78:d5:d0:d5:20:b9:02:76:
                    5c:47:89:6c:2c:2f:89:fe:a6:06:d8:55:0a:64:44:
                    0e:6c:fc:d6:5c:4a:5e:a2:bf:e6:c4:63:0a:2a:6c:
                    9a:d5:fd:17:62:99:a7:7f:d1:44:e6:6d:47:59:24:
                    5d:67:2a:63:3e:77:b6:a5:ac:77:cf:09:ac:24:70:
                    5a:e0:86:46:fb:f5:4b:87:3d:39:6c:59:6e:20:4a:
                    b9:01:b7:2d:b4:8e:e4:44:98:d9:6e:a3:c5:82:75:
                    3b:34:04:5e:a0:e8:19:93:b1:f9:f0:02:7b:c2:eb:
                    e8:33:db:4e:c8:96:2c:fa:74:5e:e7:6b:27:13:d6:
                    c3:e5:ec:d7:1e:1b:0e:ec:71:29:f8:a7:9f:88:01:
                    d1:79:d0:7f:9b:26:51:eb:f8:bc:cb:f0:d7:ff:14:
                    51:b1:78:a2:d1:87:05:40:2f:f1:b0:1b:08:37:b9:
                    0f:80:2b:0e:d8:7b:46:02:18:ab:20:d2:1a:ae:49:
                    aa:74:7c:a5:3d:0d:2b:8a:c0:37:13:cb:2a:e2:2e:
                    f0:ff:b8:a9:ac:f5:c9:2e:f9:75:a9:0f:6f:45:cf:
                    64:aa:57
                Exponent: 65537 (0x10001)
        X509v3 extensions:
            X509v3 Basic Constraints: 
                CA:FALSE
            Netscape Comment: 
                OpenSSL Generated Certificate
            X509v3 Subject Key Identifier: 
                68:9D:33:EB:4D:15:84:EA:1F:9B:CE:0C:18:8E:0E:68:F9:46:D4:4D
            X509v3 Authority Key Identifier: 
                keyid:1F:9D:02:E0:56:D8:9A:D2:3A:0A:06:99:25:5A:58:6A:72:F8:A1:7D

    Signature Algorithm: sha256WithRSAEncryption
         57:24:ad:a9:b8:a8:0d:a1:c4:c0:73:eb:32:73:f0:d9:de:07:
         45:9c:53:18:5b:dc:50:33:ac:59:a5:8c:10:e4:86:af:1d:cb:
         e1:db:28:ea:04:8e:54:fa:4d:bd:3c:b8:9a:b3:d6:16:99:53:
         aa:e9:3c:90:ce:96:74:eb:78:9a:bb:2e:c5:d1:87:ac:f0:20:
         da:e6:9e:56:5e:24:12:33:8b:eb:3e:96:c5:78:8a:12:be:5b:
         b3:0c:b3:81:b4:72:43:df:d6:90:c8:eb:97:83:75:4e:13:ef:
         28:26:df:b3:1c:f9:8f:47:07:87:9f:3a:ed:6c:f7:57:ed:ed:
         76:f6:1f:2a:b9:40:a3:9b:0c:6c:e1:e2:e6:70:18:e7:54:24:
         bd:25:df:10:19:25:fb:a0:b5:d8:70:a4:a7:0b:e3:5d:cc:8f:
         fb:2e:c1:b6:2d:8e:b7:7a:ba:56:ce:75:0c:6e:9a:00:b5:c5:
         74:77:f7:e3:50:bd:94:1f:81:97:4d:21:31:13:0f:64:05:84:
         08:61:46:f5:e5:28:7e:6e:c7:92:21:9a:db:a4:64:95:6e:78:
         a5:f0:4a:fb:7e:19:80:11:f8:2c:d3:d3:8a:15:28:a0:8a:3c:
         9f:7b:79:d1:94:cd:c3:69:6e:2b:03:0b:46:65:d6:f8:75:78:
         30:17:16:a3
-----BEGIN CERTIFICATE-----
MIIEqTCCA5GgAwIBAgIBADANBgkqhkiG9w0BAQsFADBWMQswCQYDVQQGEwJVUzEL
MAkGA1UECAwCTkMxEjAQBgNVBAcMCUNoYXJsb3R0ZTENMAsGA1UECgwEemV0YTEX
MBUGA1UEAwwObWFyYXRob24ubWVzb3MwHhcNMTYxMTA5MTk1NTAyWhcNMTcxMTE5
MTk1NTAyWjBdMQswCQYDVQQGEwJVUzELMAkGA1UECAwCQ0ExFTATBgNVBAoMDHRl
c3QtY2EtY2VydDEqMCgGA1UEAwwhdGVzdC1jYS1jZXJ0Lm1hcmF0aG9uLnNsYXZl
Lm1lc29zMIICIjANBgkqhkiG9w0BAQEFAAOCAg8AMIICCgKCAgEA5D786dUcescQ
AZGKzYH0pa4bDYDNfLRpBVJKvSj4+hhM84tuLj+vOScS2EjZr2CwncIDvqU2Ohfr
srk798juSYCwEUlgJxE4PJcAfWLfqXMgx8m9D5Y1mp9IrN501b0u/+2p7vG/uv9H
7U0C6A0xw7Ne2OM8MXqRkoO3CzJvPaQh+SoLRm77OaTtaOO6jN8GabqqJIaOwAlb
l9Nsk/o4614ST8eQ0eLLqBhuLgMug2Mf9xZBO917xRx+kVUp+zDrcKMBi1VL23/r
214KkYGBFxV1+u9ZmKmT7Ui7x0zCbNw8IfWq81TIoohPuG+9RBg2OJ+ISCWVG54y
ieIsuzUxcB6XQl/LKrNYBI1xDrmcidCN8imcdrDcGF+OnpJl4wlWeb5zeNXQ1SC5
AnZcR4lsLC+J/qYG2FUKZEQObPzWXEpeor/mxGMKKmya1f0XYpmnf9FE5m1HWSRd
ZypjPne2pax3zwmsJHBa4IZG+/VLhz05bFluIEq5AbcttI7kRJjZbqPFgnU7NARe
oOgZk7H58AJ7wuvoM9tOyJYs+nRe52snE9bD5ezXHhsO7HEp+KefiAHRedB/myZR
6/i8y/DX/xRRsXii0YcFQC/xsBsIN7kPgCsO2HtGAhirINIarkmqdHylPQ0risA3
E8sq4i7w/7iprPXJLvl1qQ9vRc9kqlcCAwEAAaN7MHkwCQYDVR0TBAIwADAsBglg
hkgBhvhCAQ0EHxYdT3BlblNTTCBHZW5lcmF0ZWQgQ2VydGlmaWNhdGUwHQYDVR0O
BBYEFGidM+tNFYTqH5vODBiODmj5RtRNMB8GA1UdIwQYMBaAFB+dAuBW2JrSOgoG
mSVaWGpy+KF9MA0GCSqGSIb3DQEBCwUAA4IBAQBXJK2puKgNocTAc+syc/DZ3gdF
nFMYW9xQM6xZpYwQ5IavHcvh2yjqBI5U+k29PLias9YWmVOq6TyQzpZ063iauy7F
0Yes8CDa5p5WXiQSM4vrPpbFeIoSvluzDLOBtHJD39aQyOuXg3VOE+8oJt+zHPmP
RweHnzrtbPdX7e129h8quUCjmwxs4eLmcBjnVCS9Jd8QGSX7oLXYcKSnC+NdzI/7
LsG2LY63erpWznUMbpoAtcV0d/fjUL2UH4GXTSExEw9kBYQIYUb15Sh+bseSIZrb
pGSVbnil8Er7fhmAEfgs09OKFSigijyfe3nRlM3DaW4rAwtGZdb4dXgwFxaj
-----END CERTIFICATE-----
