Certificate:
    Data:
        Version: 3 (0x2)
        Serial Number: 1 (0x1)
    Signature Algorithm: sha256WithRSAEncryption
        Issuer: C=US, ST=NC, L=Charlotte, O=zeta, CN=marathon.mesos
        Validity
            Not Before: Nov  9 19:56:00 2016 GMT
            Not After : Nov 19 19:56:00 2017 GMT
        Subject: C=US, ST=CA, O=test-ca-cert2, CN=test-ca-cert2
        Subject Public Key Info:
            Public Key Algorithm: rsaEncryption
                Public-Key: (4096 bit)
                Modulus:
                    00:c1:5d:81:1f:14:88:56:9c:93:a2:d9:76:aa:ad:
                    91:d0:ea:4d:64:54:d0:85:b7:f5:68:ee:7d:47:a6:
                    36:97:6f:16:fa:0c:a6:9e:0f:b6:f2:d4:b8:bd:0b:
                    bc:83:3b:02:be:d4:27:75:ba:12:a1:4c:16:86:fd:
                    31:e9:ab:76:2f:2c:b2:92:1e:ff:60:b0:a5:cc:6f:
                    40:5d:30:ff:10:90:9c:f1:46:5f:ce:bd:72:42:df:
                    a8:91:20:ee:c1:07:13:73:19:e5:87:04:9c:5a:d5:
                    e8:b1:05:16:d0:3d:88:53:66:63:43:06:80:4d:7c:
                    5f:b5:4b:9e:6e:91:2d:a0:ed:6d:b1:9b:55:fb:9d:
                    ef:58:cb:39:97:08:ad:1e:1d:06:a3:be:1f:72:51:
                    96:18:c7:c3:63:94:f5:d1:eb:1b:88:c0:c7:5c:06:
                    1d:5e:28:f3:25:f0:81:ac:a8:7f:b4:06:71:19:93:
                    4b:f8:ee:2c:92:b3:66:04:9c:15:06:67:15:17:66:
                    53:b7:3e:d5:4b:02:53:e5:8f:b2:2c:c2:01:3d:a1:
                    67:62:da:11:0e:80:64:02:57:a1:3a:53:b6:64:d2:
                    73:a3:cc:a7:47:1a:7b:6d:43:b9:90:56:33:b3:f1:
                    49:10:0b:24:a8:77:b4:51:8f:28:26:13:3e:1a:f8:
                    4b:66:47:d6:ea:1c:e7:3d:c9:2f:20:3e:ad:37:09:
                    ec:54:1b:c5:23:72:0f:e9:c8:ea:e0:50:91:e8:d0:
                    16:22:00:a3:9c:a7:cc:bb:bc:a5:41:88:72:6f:55:
                    3c:e0:eb:c5:60:ef:ae:10:dc:0e:20:75:f9:ed:b3:
                    66:03:ab:00:6f:29:4b:62:4a:82:54:04:1a:c6:21:
                    21:2a:03:c6:52:8b:aa:53:99:3a:9d:bc:db:21:a1:
                    5e:6a:8d:8d:84:fc:a7:1e:49:eb:93:23:13:92:b4:
                    d8:7d:fc:3a:45:30:16:a4:55:d3:d4:51:e2:05:84:
                    ea:23:1f:f7:0c:27:59:69:ab:60:b9:18:3e:19:eb:
                    b9:3c:73:68:03:11:17:cb:ee:46:fc:37:8e:22:c1:
                    8a:1a:9e:5b:01:ec:8b:00:64:93:ac:20:ae:4a:82:
                    d6:47:29:f4:1f:bf:46:15:59:0f:4b:44:7c:35:77:
                    65:aa:f4:a6:16:2e:21:d3:5c:43:49:0e:fa:84:66:
                    4a:ad:6d:04:46:0f:ef:23:d9:bd:98:65:81:4b:cb:
                    55:3c:6d:06:1c:48:44:41:36:70:be:34:ef:44:16:
                    16:1d:0b:44:f6:b2:8b:a9:71:cf:04:48:d1:9e:eb:
                    2b:4f:64:05:24:8a:52:ed:64:bb:ce:79:24:34:1e:
                    bf:09:b7
                Exponent: 65537 (0x10001)
        X509v3 extensions:
            X509v3 Basic Constraints: 
                CA:FALSE
            Netscape Comment: 
                OpenSSL Generated Certificate
            X509v3 Subject Key Identifier: 
                E3:09:B1:7E:3B:0C:A0:1C:44:BC:E0:15:64:C7:BF:F9:77:71:10:5C
            X509v3 Authority Key Identifier: 
                keyid:1F:9D:02:E0:56:D8:9A:D2:3A:0A:06:99:25:5A:58:6A:72:F8:A1:7D

    Signature Algorithm: sha256WithRSAEncryption
         18:ea:42:1c:0c:22:35:b2:b6:24:c5:c7:2b:0c:1a:d5:7b:d4:
         08:15:22:9d:11:f4:d7:13:ef:43:9e:e1:75:f3:03:3b:44:7e:
         a9:7b:73:0c:dc:cd:e7:c5:be:40:4b:2f:a6:59:e4:84:8a:6e:
         01:f8:b6:05:6f:91:14:46:83:97:c1:21:48:5c:74:14:79:4e:
         7b:b9:fd:65:ec:a9:70:48:f6:3e:f6:23:e5:58:46:51:cd:9e:
         38:05:57:7c:49:f9:a8:8b:d2:45:b8:95:df:18:4a:ae:62:62:
         6b:e8:68:66:f1:90:ef:32:8a:2e:10:e3:b4:2c:3c:32:b0:1f:
         07:dc:34:ad:28:6a:2c:8e:43:bb:01:4f:30:0b:59:3c:7d:7f:
         1d:0a:08:9a:1c:0a:7c:69:1d:a4:77:b2:66:09:21:64:78:9c:
         42:87:48:de:e7:eb:0d:c8:ee:09:d6:6c:91:9a:bd:27:94:67:
         1b:e9:55:91:82:d8:75:15:02:af:a2:5d:05:b6:47:ea:85:8c:
         48:a6:1a:85:e9:99:cc:24:f9:75:12:c2:d9:f2:85:b9:0d:5d:
         85:82:4d:50:23:17:f1:10:ae:82:61:26:64:fd:34:20:26:74:
         4b:c7:19:08:1d:99:e8:69:6a:ec:4b:8f:5a:d2:d5:f4:10:d1:
         0a:32:bc:1c
-----BEGIN CERTIFICATE-----
MIIEljCCA36gAwIBAgIBATANBgkqhkiG9w0BAQsFADBWMQswCQYDVQQGEwJVUzEL
MAkGA1UECAwCTkMxEjAQBgNVBAcMCUNoYXJsb3R0ZTENMAsGA1UECgwEemV0YTEX
MBUGA1UEAwwObWFyYXRob24ubWVzb3MwHhcNMTYxMTA5MTk1NjAwWhcNMTcxMTE5
MTk1NjAwWjBKMQswCQYDVQQGEwJVUzELMAkGA1UECAwCQ0ExFjAUBgNVBAoMDXRl
c3QtY2EtY2VydDIxFjAUBgNVBAMMDXRlc3QtY2EtY2VydDIwggIiMA0GCSqGSIb3
DQEBAQUAA4ICDwAwggIKAoICAQDBXYEfFIhWnJOi2XaqrZHQ6k1kVNCFt/Vo7n1H
pjaXbxb6DKaeD7by1Li9C7yDOwK+1Cd1uhKhTBaG/THpq3YvLLKSHv9gsKXMb0Bd
MP8QkJzxRl/OvXJC36iRIO7BBxNzGeWHBJxa1eixBRbQPYhTZmNDBoBNfF+1S55u
kS2g7W2xm1X7ne9YyzmXCK0eHQajvh9yUZYYx8NjlPXR6xuIwMdcBh1eKPMl8IGs
qH+0BnEZk0v47iySs2YEnBUGZxUXZlO3PtVLAlPlj7IswgE9oWdi2hEOgGQCV6E6
U7Zk0nOjzKdHGnttQ7mQVjOz8UkQCySod7RRjygmEz4a+EtmR9bqHOc9yS8gPq03
CexUG8Ujcg/pyOrgUJHo0BYiAKOcp8y7vKVBiHJvVTzg68Vg764Q3A4gdfnts2YD
qwBvKUtiSoJUBBrGISEqA8ZSi6pTmTqdvNshoV5qjY2E/KceSeuTIxOStNh9/DpF
MBakVdPUUeIFhOojH/cMJ1lpq2C5GD4Z67k8c2gDERfL7kb8N44iwYoanlsB7IsA
ZJOsIK5KgtZHKfQfv0YVWQ9LRHw1d2Wq9KYWLiHTXENJDvqEZkqtbQRGD+8j2b2Y
ZYFLy1U8bQYcSERBNnC+NO9EFhYdC0T2soupcc8ESNGe6ytPZAUkilLtZLvOeSQ0
Hr8JtwIDAQABo3sweTAJBgNVHRMEAjAAMCwGCWCGSAGG+EIBDQQfFh1PcGVuU1NM
IEdlbmVyYXRlZCBDZXJ0aWZpY2F0ZTAdBgNVHQ4EFgQU4wmxfjsMoBxEvOAVZMe/
+XdxEFwwHwYDVR0jBBgwFoAUH50C4FbYmtI6CgaZJVpYanL4oX0wDQYJKoZIhvcN
AQELBQADggEBABjqQhwMIjWytiTFxysMGtV71AgVIp0R9NcT70Oe4XXzAztEfql7
cwzczefFvkBLL6ZZ5ISKbgH4tgVvkRRGg5fBIUhcdBR5Tnu5/WXsqXBI9j72I+VY
RlHNnjgFV3xJ+aiL0kW4ld8YSq5iYmvoaGbxkO8yii4Q47QsPDKwHwfcNK0oaiyO
Q7sBTzALWTx9fx0KCJocCnxpHaR3smYJIWR4nEKHSN7n6w3I7gnWbJGavSeUZxvp
VZGC2HUVAq+iXQW2R+qFjEimGoXpmcwk+XUSwtnyhbkNXYWCTVAjF/EQroJhJmT9
NCAmdEvHGQgdmehpauxLj1rS1fQQ0QoyvBw=
-----END CERTIFICATE-----
