Certificate:
    Data:
        Version: 3 (0x2)
        Serial Number: 2 (0x2)
    Signature Algorithm: sha256WithRSAEncryption
        Issuer: C=US, ST=NC, L=Charlotte, O=zeta, CN=marathon.mesos
        Validity
            Not Before: Nov  9 19:57:01 2016 GMT
            Not After : Nov 19 19:57:01 2017 GMT
        Subject: C=US, ST=CA, O=test-csr-again, CN=test-csr-again
        Subject Public Key Info:
            Public Key Algorithm: rsaEncryption
                Public-Key: (4096 bit)
                Modulus:
                    00:e7:bf:1f:49:28:5c:75:3c:7e:d5:82:cc:a5:fe:
                    3d:74:01:b9:67:36:05:ae:40:a8:2d:17:1b:4c:82:
                    9f:17:67:6a:2a:b6:76:27:43:15:38:e5:14:18:20:
                    66:5f:33:de:2d:14:8c:5c:1f:9e:97:28:32:ce:a2:
                    df:fd:4a:e8:2a:ee:68:a2:15:5d:2a:b3:43:be:6b:
                    89:3a:c6:fe:cb:94:9d:54:26:df:ae:31:d5:22:48:
                    1f:95:92:52:7d:6a:dc:51:66:ea:33:51:4a:25:1f:
                    6d:18:d9:4c:ea:dd:6f:82:6b:b2:a1:77:48:74:4a:
                    d2:ab:58:f7:d6:0f:40:f9:eb:14:bb:1b:f1:b1:24:
                    48:82:48:89:33:41:2c:95:ab:1a:93:3f:36:13:fa:
                    35:a5:f0:6e:79:d6:23:d3:92:20:4b:5b:ca:ee:59:
                    a8:ac:31:8e:be:4b:af:2d:6e:19:3a:0d:99:3c:d0:
                    89:9b:bc:00:1e:2c:43:30:84:3e:0d:96:d4:11:bd:
                    a4:26:d3:0e:2e:4d:08:38:0c:9f:06:b0:99:98:18:
                    bd:f5:4a:55:49:a7:ff:e4:b5:a4:50:2b:5b:a6:88:
                    3b:23:21:15:f5:fa:77:a9:b3:dc:2c:ab:58:c1:3a:
                    36:13:12:78:42:d6:6b:d8:7a:59:79:ae:98:76:2a:
                    ca:d3:8d:8c:34:28:89:09:96:51:50:4f:c2:45:94:
                    2b:65:85:89:7f:70:40:b9:49:4e:af:42:1b:d4:36:
                    4e:07:b2:a3:9a:c1:a3:a3:9d:73:2b:6d:eb:3f:99:
                    d9:19:2d:59:0c:0c:1e:a5:bf:a5:18:90:f0:80:3b:
                    08:e4:96:73:9d:41:06:63:b8:2d:54:80:2d:79:8b:
                    e2:82:70:b4:25:0f:29:22:89:5f:72:45:db:a7:10:
                    a1:13:a2:a5:0d:8a:d0:3c:d3:03:e2:b8:a6:b5:25:
                    42:92:71:1d:5d:e5:a0:cc:78:23:4a:7a:2f:bb:6e:
                    6c:22:39:19:de:86:c8:f3:f4:ca:0c:46:ad:5e:d4:
                    4f:9d:b7:25:ef:d4:74:28:4b:af:4b:55:c6:12:80:
                    b2:40:12:cb:b9:fb:0a:9a:93:2a:65:f2:17:90:e6:
                    63:61:bf:c6:c2:92:d0:2c:eb:02:46:98:30:14:67:
                    cb:68:4d:44:7d:ea:bd:ce:1c:b5:41:97:cc:22:bc:
                    3b:8a:58:20:fe:a9:f0:61:ca:3b:f5:20:df:3a:57:
                    79:f1:32:0c:27:ca:67:fe:7d:50:0e:5e:d4:05:38:
                    90:2e:76:75:bb:49:da:e4:ce:a6:da:75:95:57:33:
                    eb:1d:d0:a9:dd:63:74:c4:58:85:31:d4:85:2f:61:
                    a9:33:8b
                Exponent: 65537 (0x10001)
        X509v3 extensions:
            X509v3 Basic Constraints: 
                CA:FALSE
            Netscape Comment: 
                OpenSSL Generated Certificate
            X509v3 Subject Key Identifier: 
                B3:A1:F9:08:DA:AE:A8:5B:3D:3A:BC:45:DA:C6:DE:0C:62:CC:5E:D1
            X509v3 Authority Key Identifier: 
                keyid:1F:9D:02:E0:56:D8:9A:D2:3A:0A:06:99:25:5A:58:6A:72:F8:A1:7D

    Signature Algorithm: sha256WithRSAEncryption
         7d:ac:14:e3:1d:29:ea:12:4d:26:b8:1c:c1:40:76:6b:03:55:
         0d:2e:5d:d5:ca:c6:e1:9c:f7:b3:25:97:3e:e9:20:1f:8c:3a:
         63:94:92:91:58:fd:48:00:d1:bc:14:0a:28:07:31:e3:b5:ad:
         7f:04:7f:69:c8:95:52:71:81:c7:93:b1:56:27:db:2b:3d:bf:
         45:18:4f:e0:ca:7d:bc:91:31:fb:ff:b9:33:76:e4:a8:74:26:
         b5:b6:40:d9:f0:d8:7f:54:7b:79:0b:8a:f3:bd:8a:64:4e:07:
         4e:a8:fd:77:b2:04:3b:66:ff:68:7d:b2:9a:1a:38:f9:c5:9b:
         de:a1:cf:f0:cf:19:38:b4:83:75:32:11:ab:c3:13:4b:df:b9:
         34:2b:dc:cb:55:f2:80:05:c6:1d:41:40:ee:84:2b:b0:c0:47:
         d6:df:d9:f0:70:db:84:c6:78:09:24:08:00:77:ec:e2:64:ed:
         13:07:9d:74:c5:80:5c:18:15:b3:ee:56:03:20:59:98:27:d7:
         f7:ae:c6:01:f1:13:18:38:f9:b5:b8:91:c2:31:73:20:50:ae:
         5c:f3:23:37:b0:ea:6e:a2:4b:2e:83:dd:67:77:95:d6:2a:85:
         0e:de:1a:19:ca:54:8d:aa:08:31:6a:54:b8:68:44:03:79:b6:
         d5:21:96:88
-----BEGIN CERTIFICATE-----
MIIEmDCCA4CgAwIBAgIBAjANBgkqhkiG9w0BAQsFADBWMQswCQYDVQQGEwJVUzEL
MAkGA1UECAwCTkMxEjAQBgNVBAcMCUNoYXJsb3R0ZTENMAsGA1UECgwEemV0YTEX
MBUGA1UEAwwObWFyYXRob24ubWVzb3MwHhcNMTYxMTA5MTk1NzAxWhcNMTcxMTE5
MTk1NzAxWjBMMQswCQYDVQQGEwJVUzELMAkGA1UECAwCQ0ExFzAVBgNVBAoMDnRl
c3QtY3NyLWFnYWluMRcwFQYDVQQDDA50ZXN0LWNzci1hZ2FpbjCCAiIwDQYJKoZI
hvcNAQEBBQADggIPADCCAgoCggIBAOe/H0koXHU8ftWCzKX+PXQBuWc2Ba5AqC0X
G0yCnxdnaiq2didDFTjlFBggZl8z3i0UjFwfnpcoMs6i3/1K6CruaKIVXSqzQ75r
iTrG/suUnVQm364x1SJIH5WSUn1q3FFm6jNRSiUfbRjZTOrdb4JrsqF3SHRK0qtY
99YPQPnrFLsb8bEkSIJIiTNBLJWrGpM/NhP6NaXwbnnWI9OSIEtbyu5ZqKwxjr5L
ry1uGToNmTzQiZu8AB4sQzCEPg2W1BG9pCbTDi5NCDgMnwawmZgYvfVKVUmn/+S1
pFArW6aIOyMhFfX6d6mz3CyrWME6NhMSeELWa9h6WXmumHYqytONjDQoiQmWUVBP
wkWUK2WFiX9wQLlJTq9CG9Q2Tgeyo5rBo6Odcytt6z+Z2RktWQwMHqW/pRiQ8IA7
COSWc51BBmO4LVSALXmL4oJwtCUPKSKJX3JF26cQoROipQ2K0DzTA+K4prUlQpJx
HV3loMx4I0p6L7tubCI5Gd6GyPP0ygxGrV7UT523Je/UdChLr0tVxhKAskASy7n7
CpqTKmXyF5DmY2G/xsKS0CzrAkaYMBRny2hNRH3qvc4ctUGXzCK8O4pYIP6p8GHK
O/Ug3zpXefEyDCfKZ/59UA5e1AU4kC52dbtJ2uTOptp1lVcz6x3Qqd1jdMRYhTHU
hS9hqTOLAgMBAAGjezB5MAkGA1UdEwQCMAAwLAYJYIZIAYb4QgENBB8WHU9wZW5T
U0wgR2VuZXJhdGVkIENlcnRpZmljYXRlMB0GA1UdDgQWBBSzofkI2q6oWz06vEXa
xt4MYsxe0TAfBgNVHSMEGDAWgBQfnQLgVtia0joKBpklWlhqcvihfTANBgkqhkiG
9w0BAQsFAAOCAQEAfawU4x0p6hJNJrgcwUB2awNVDS5d1crG4Zz3syWXPukgH4w6
Y5SSkVj9SADRvBQKKAcx47WtfwR/aciVUnGBx5OxVifbKz2/RRhP4Mp9vJEx+/+5
M3bkqHQmtbZA2fDYf1R7eQuK872KZE4HTqj9d7IEO2b/aH2ymho4+cWb3qHP8M8Z
OLSDdTIRq8MTS9+5NCvcy1XygAXGHUFA7oQrsMBH1t/Z8HDbhMZ4CSQIAHfs4mTt
EweddMWAXBgVs+5WAyBZmCfX967GAfETGDj5tbiRwjFzIFCuXPMjN7DqbqJLLoPd
Z3eV1iqFDt4aGcpUjaoIMWpUuGhEA3m21SGWiA==
-----END CERTIFICATE-----
